target datalayout = "e-m:e-p270:32:32-p271:32:32-p272:64:64-i64:64-i128:128-f80:128-n8:16:32:64-S128"
target triple = "x86_64-unknown-linux-gnu"

%"class.std::set.0" = type { %"class.std::_Rb_tree.1" }
%"class.std::_Rb_tree.1" = type { %"struct.std::_Rb_tree<QuantLib::Observer *, QuantLib::Observer *, std::_Identity<QuantLib::Observer *>, std::less<QuantLib::Observer *>>::_Rb_tree_impl" }
%"struct.std::_Rb_tree<QuantLib::Observer *, QuantLib::Observer *, std::_Identity<QuantLib::Observer *>, std::less<QuantLib::Observer *>>::_Rb_tree_impl" = type { [8 x i8], %"struct.std::_Rb_tree_header" }
%"struct.std::_Rb_tree_header" = type { %"struct.std::_Rb_tree_node_base", i64 }
%"struct.std::_Rb_tree_node_base" = type { i32, ptr, ptr, ptr }
%"class.std::set" = type { %"class.std::_Rb_tree" }
%"class.std::_Rb_tree" = type { %"struct.std::_Rb_tree<boost::shared_ptr<QuantLib::Observable>, boost::shared_ptr<QuantLib::Observable>, std::_Identity<boost::shared_ptr<QuantLib::Observable>>, std::less<boost::shared_ptr<QuantLib::Observable>>>::_Rb_tree_impl" }
%"struct.std::_Rb_tree<boost::shared_ptr<QuantLib::Observable>, boost::shared_ptr<QuantLib::Observable>, std::_Identity<boost::shared_ptr<QuantLib::Observable>>, std::less<boost::shared_ptr<QuantLib::Observable>>>::_Rb_tree_impl" = type { [8 x i8], %"struct.std::_Rb_tree_header" }
%"class.boost::detail::shared_count" = type { ptr }
%"class.QuantLib::Observable" = type { ptr, %"class.std::set.0" }
%"class.QuantLib::JointStochasticProcess" = type { %"class.QuantLib::StochasticProcess", %"class.std::vector", i64, i64, i64, %"class.std::vector.10", %"class.std::vector.10", %"class.std::map" }
%"class.QuantLib::StochasticProcess" = type { %"class.QuantLib::Observer", %"class.QuantLib::Observable", %"class.boost::shared_ptr.9" }
%"class.QuantLib::Observer" = type { ptr, %"class.std::set" }
%"class.boost::shared_ptr.9" = type { ptr, %"class.boost::detail::shared_count" }
%"class.std::vector" = type { %"struct.std::_Vector_base" }
%"struct.std::_Vector_base" = type { %"struct.std::_Vector_base<boost::shared_ptr<QuantLib::StochasticProcess>, std::allocator<boost::shared_ptr<QuantLib::StochasticProcess>>>::_Vector_impl" }
%"struct.std::_Vector_base<boost::shared_ptr<QuantLib::StochasticProcess>, std::allocator<boost::shared_ptr<QuantLib::StochasticProcess>>>::_Vector_impl" = type { %"struct.std::_Vector_base<boost::shared_ptr<QuantLib::StochasticProcess>, std::allocator<boost::shared_ptr<QuantLib::StochasticProcess>>>::_Vector_impl_data" }
%"struct.std::_Vector_base<boost::shared_ptr<QuantLib::StochasticProcess>, std::allocator<boost::shared_ptr<QuantLib::StochasticProcess>>>::_Vector_impl_data" = type { ptr, ptr, ptr }
%"class.std::vector.10" = type { %"struct.std::_Vector_base.11" }
%"struct.std::_Vector_base.11" = type { %"struct.std::_Vector_base<unsigned long, std::allocator<unsigned long>>::_Vector_impl" }
%"struct.std::_Vector_base<unsigned long, std::allocator<unsigned long>>::_Vector_impl" = type { %"struct.std::_Vector_base<unsigned long, std::allocator<unsigned long>>::_Vector_impl_data" }
%"struct.std::_Vector_base<unsigned long, std::allocator<unsigned long>>::_Vector_impl_data" = type { ptr, ptr, ptr }
%"class.std::map" = type { %"class.std::_Rb_tree.15" }
%"class.std::_Rb_tree.15" = type { %"struct.std::_Rb_tree<QuantLib::JointStochasticProcess::CachingKey, std::pair<const QuantLib::JointStochasticProcess::CachingKey, QuantLib::Matrix>, std::_Select1st<std::pair<const QuantLib::JointStochasticProcess::CachingKey, QuantLib::Matrix>>, std::less<QuantLib::JointStochasticProcess::CachingKey>>::_Rb_tree_impl" }
%"struct.std::_Rb_tree<QuantLib::JointStochasticProcess::CachingKey, std::pair<const QuantLib::JointStochasticProcess::CachingKey, QuantLib::Matrix>, std::_Select1st<std::pair<const QuantLib::JointStochasticProcess::CachingKey, QuantLib::Matrix>>, std::less<QuantLib::JointStochasticProcess::CachingKey>>::_Rb_tree_impl" = type { [8 x i8], %"struct.std::_Rb_tree_header" }

; Function Attrs: mustprogress nounwind uwtable
define linkonce_odr noundef ptr @_ZNKSt8_Rb_treeIN8QuantLib22JointStochasticProcess10CachingKeyESt4pairIKS2_NS0_6MatrixEESt10_Select1stIS6_ESt4lessIS2_ESaIS6_EE9_M_mbeginEv(ptr noundef nonnull align 8 dereferenceable(48) %this) #1 comdat align 2 {
entry:
  %this.addr = alloca ptr, align 8
  store ptr %this, ptr %this.addr, align 8, !tbaa !3
  %this1 = load ptr, ptr %this.addr, align 8
  %_M_impl = getelementptr inbounds nuw %"class.std::_Rb_tree.15", ptr %this1, i32 0, i32 0
  %add.ptr = getelementptr inbounds i8, ptr %_M_impl, i64 8
  %_M_header = getelementptr inbounds nuw %"struct.std::_Rb_tree_header", ptr %add.ptr, i32 0, i32 0
  %_M_parent = getelementptr inbounds nuw %"struct.std::_Rb_tree_node_base", ptr %_M_header, i32 0, i32 1
  %0 = load ptr, ptr %_M_parent, align 8, !tbaa !118
  ret ptr %0
}

; Function Attrs: mustprogress nounwind uwtable
define linkonce_odr void @_ZNSt15_Rb_tree_header8_M_resetEv(ptr noundef nonnull align 8 dereferenceable(40) %this) #1 comdat align 2 {
entry:
  %this.addr = alloca ptr, align 8
  store ptr %this, ptr %this.addr, align 8, !tbaa !3
  %this1 = load ptr, ptr %this.addr, align 8
  %_M_header = getelementptr inbounds nuw %"struct.std::_Rb_tree_header", ptr %this1, i32 0, i32 0
  %_M_parent = getelementptr inbounds nuw %"struct.std::_Rb_tree_node_base", ptr %_M_header, i32 0, i32 1
  store ptr null, ptr %_M_parent, align 8, !tbaa !118
  %_M_header2 = getelementptr inbounds nuw %"struct.std::_Rb_tree_header", ptr %this1, i32 0, i32 0
  %_M_header3 = getelementptr inbounds nuw %"struct.std::_Rb_tree_header", ptr %this1, i32 0, i32 0
  %_M_left = getelementptr inbounds nuw %"struct.std::_Rb_tree_node_base", ptr %_M_header3, i32 0, i32 2
  store ptr %_M_header2, ptr %_M_left, align 8, !tbaa !119
  %_M_header4 = getelementptr inbounds nuw %"struct.std::_Rb_tree_header", ptr %this1, i32 0, i32 0
  %_M_header5 = getelementptr inbounds nuw %"struct.std::_Rb_tree_header", ptr %this1, i32 0, i32 0
  %_M_right = getelementptr inbounds nuw %"struct.std::_Rb_tree_node_base", ptr %_M_header5, i32 0, i32 3
  store ptr %_M_header4, ptr %_M_right, align 8, !tbaa !120
  %_M_node_count = getelementptr inbounds nuw %"struct.std::_Rb_tree_header", ptr %this1, i32 0, i32 1
  store i64 0, ptr %_M_node_count, align 8, !tbaa !121
  ret void
}

; Function Attrs: mustprogress nounwind uwtable
define linkonce_odr noundef ptr @_ZNSt8_Rb_treeIN8QuantLib22JointStochasticProcess10CachingKeyESt4pairIKS2_NS0_6MatrixEESt10_Select1stIS6_ESt4lessIS2_ESaIS6_EE8_M_beginEv(ptr noundef nonnull align 8 dereferenceable(48) %this) #1 comdat align 2 {
entry:
  %this.addr = alloca ptr, align 8
  store ptr %this, ptr %this.addr, align 8, !tbaa !3
  %this1 = load ptr, ptr %this.addr, align 8
  %call = call noundef ptr @_ZNKSt8_Rb_treeIN8QuantLib22JointStochasticProcess10CachingKeyESt4pairIKS2_NS0_6MatrixEESt10_Select1stIS6_ESt4lessIS2_ESaIS6_EE9_M_mbeginEv(ptr noundef nonnull align 8 dereferenceable(48) %this1) #11
  ret ptr %call
}

; Function Attrs: mustprogress nounwind uwtable
define linkonce_odr void @_ZNSt8_Rb_treeIN8QuantLib22JointStochasticProcess10CachingKeyESt4pairIKS2_NS0_6MatrixEESt10_Select1stIS6_ESt4lessIS2_ESaIS6_EE5clearEv(ptr noundef nonnull align 8 dereferenceable(48) %this) #1 comdat align 2 personality ptr @__gxx_personality_v0 {
entry:
  %this.addr = alloca ptr, align 8
  store ptr %this, ptr %this.addr, align 8, !tbaa !3
  %this1 = load ptr, ptr %this.addr, align 8
  %call = call noundef ptr @_ZNSt8_Rb_treeIN8QuantLib22JointStochasticProcess10CachingKeyESt4pairIKS2_NS0_6MatrixEESt10_Select1stIS6_ESt4lessIS2_ESaIS6_EE8_M_beginEv(ptr noundef nonnull align 8 dereferenceable(48) %this1) #11
  invoke void @_ZNSt8_Rb_treeIN8QuantLib22JointStochasticProcess10CachingKeyESt4pairIKS2_NS0_6MatrixEESt10_Select1stIS6_ESt4lessIS2_ESaIS6_EE8_M_eraseEPSt13_Rb_tree_nodeIS6_E(ptr noundef nonnull align 8 dereferenceable(48) %this1, ptr noundef %call)
          to label %invoke.cont unwind label %terminate.lpad

invoke.cont:                                      ; preds = %entry
  %_M_impl = getelementptr inbounds nuw %"class.std::_Rb_tree.15", ptr %this1, i32 0, i32 0
  %add.ptr = getelementptr inbounds i8, ptr %_M_impl, i64 8
  call void @_ZNSt15_Rb_tree_header8_M_resetEv(ptr noundef nonnull align 8 dereferenceable(40) %add.ptr)
  ret void

terminate.lpad:                                   ; preds = %entry
  %0 = landingpad { ptr, i32 }
          catch ptr null
  %1 = extractvalue { ptr, i32 } %0, 0
  call void @__clang_call_terminate(ptr %1) #19
  unreachable
}

; Function Attrs: mustprogress nounwind uwtable
define linkonce_odr void @_ZNSt3mapIN8QuantLib22JointStochasticProcess10CachingKeyENS0_6MatrixESt4lessIS2_ESaISt4pairIKS2_S3_EEE5clearEv(ptr noundef nonnull align 8 dereferenceable(48) %this) #1 comdat align 2 {
entry:
  %this.addr = alloca ptr, align 8
  store ptr %this, ptr %this.addr, align 8, !tbaa !3
  %this1 = load ptr, ptr %this.addr, align 8
  %_M_t = getelementptr inbounds nuw %"class.std::map", ptr %this1, i32 0, i32 0
  call void @_ZNSt8_Rb_treeIN8QuantLib22JointStochasticProcess10CachingKeyESt4pairIKS2_NS0_6MatrixEESt10_Select1stIS6_ESt4lessIS2_ESaIS6_EE5clearEv(ptr noundef nonnull align 8 dereferenceable(48) %_M_t) #11
  ret void
}

; Function Attrs: mustprogress uwtable
define void @_ZN8QuantLib22JointStochasticProcess6updateEv(ptr noundef nonnull align 8 dereferenceable(272) %this) unnamed_addr #2 align 2 {
entry:
  %this.addr = alloca ptr, align 8
  store ptr %this, ptr %this.addr, align 8, !tbaa !3
  %this1 = load ptr, ptr %this.addr, align 8
  %correlationCache_ = getelementptr inbounds nuw %"class.QuantLib::JointStochasticProcess", ptr %this1, i32 0, i32 7
  call void @_ZNSt3mapIN8QuantLib22JointStochasticProcess10CachingKeyENS0_6MatrixESt4lessIS2_ESaISt4pairIKS2_S3_EEE5clearEv(ptr noundef nonnull align 8 dereferenceable(48) %correlationCache_) #11
  call void @_ZN8QuantLib17StochasticProcess6updateEv(ptr noundef nonnull align 8 dereferenceable(128) %this1)
  ret void
}