; Function Attrs: mustprogress uwtable
define void @_ZN8QuantLib22JointStochasticProcess6updateEv(ptr noundef nonnull align 8 dereferenceable(272) %this) unnamed_addr #6 align 2 personality ptr @__gxx_personality_v0 {
entry:
  %correlationCache_ = getelementptr inbounds nuw i8, ptr %this, i64 224
  %_M_parent.i.i.i.i = getelementptr inbounds i8, ptr %this, i64 240
  %0 = load ptr, ptr %_M_parent.i.i.i.i, align 8, !tbaa !13
  invoke void @_ZNSt8_Rb_treeIN8QuantLib22JointStochasticProcess10CachingKeyESt4pairIKS2_NS0_6MatrixEESt10_Select1stIS6_ESt4lessIS2_ESaIS6_EE8_M_eraseEPSt13_Rb_tree_nodeIS6_E(ptr noundef nonnull align 8 dereferenceable(48) %correlationCache_, ptr noundef %0)
          to label %_ZNSt3mapIN8QuantLib22JointStochasticProcess10CachingKeyENS0_6MatrixESt4lessIS2_ESaISt4pairIKS2_S3_EEE5clearEv.exit unwind label %terminate.lpad.i.i

terminate.lpad.i.i:                               ; preds = %entry
  %1 = landingpad { ptr, i32 }
          catch ptr null
  %2 = extractvalue { ptr, i32 } %1, 0
  tail call void @__clang_call_terminate(ptr %2) #28
  unreachable

_ZNSt3mapIN8QuantLib22JointStochasticProcess10CachingKeyENS0_6MatrixESt4lessIS2_ESaISt4pairIKS2_S3_EEE5clearEv.exit: ; preds = %entry
  %add.ptr.i.i = getelementptr inbounds i8, ptr %this, i64 232
  store ptr null, ptr %_M_parent.i.i.i.i, align 8, !tbaa !13
  %_M_left.i.i.i = getelementptr inbounds i8, ptr %this, i64 248
  store ptr %add.ptr.i.i, ptr %_M_left.i.i.i, align 8, !tbaa !14
  %_M_right.i.i.i = getelementptr inbounds i8, ptr %this, i64 256
  store ptr %add.ptr.i.i, ptr %_M_right.i.i.i, align 8, !tbaa !15
  %_M_node_count.i.i.i = getelementptr inbounds i8, ptr %this, i64 264
  store i64 0, ptr %_M_node_count.i.i.i, align 8, !tbaa !16
  tail call void @_ZN8QuantLib17StochasticProcess6updateEv(ptr noundef nonnull align 8 dereferenceable(128) %this)
  ret void
}